; Function Attrs: null_pointer_is_valid sspstrong uwtable
define internal void @ikev2_users_spii_set_cb(ptr noundef captures(none) initializes((8, 12)) %0, ptr noundef %1, i32 noundef %2, ptr readnone captures(none) %3, ptr readnone captures(none) %4) #0 {
  %.not = icmp eq i32 %2, 0
  br i1 %.not, label %9, label %6

6:                                                ; preds = %5
  %7 = zext i32 %2 to i64
  %8 = tail call ptr @g_memdup2(ptr noundef %1, i64 noundef %7) #22
  br label %9

9:                                                ; preds = %5, %6
  %10 = phi ptr [ %8, %6 ], [ null, %5 ]
  %11 = load ptr, ptr %0, align 8
  tail call void @g_free(ptr noundef %11)
  store ptr %10, ptr %0, align 8
  %12 = getelementptr inbounds nuw i8, ptr %0, i64 8
  store i32 %2, ptr %12, align 8
  ret void
}